target datalayout = "e-m:e-p270:32:32-p271:32:32-p272:64:64-i64:64-i128:128-f80:128-n8:16:32:64-S128"
target triple = "x86_64-pc-linux-gnu"

%struct.tracemalloc_traceback = type { i64, i16, i16, [1 x %struct.tracemalloc_frame] }
%struct.tracemalloc_frame = type <{ ptr, i32 }>
%struct._object = type { %union.anon.41, ptr }
%union.anon.41 = type { i64 }
%struct.PyVarObject = type { %struct._object, i64 }
%struct.PyTupleObject = type { %struct.PyVarObject, [1 x ptr] }
%struct.trace_t = type { i64, ptr }
%struct.get_traces_t = type { ptr, ptr, ptr, ptr, i32 }
%struct.anon.42 = type { i32, i32 }

; Function Attrs: alwaysinline nounwind uwtable
define internal i32 @_Py_IsImmortal(ptr noundef %0) #5 {
  %2 = alloca ptr, align 8
  store ptr %0, ptr %2, align 8, !tbaa !191
  %3 = load ptr, ptr %2, align 8, !tbaa !191
  %4 = getelementptr inbounds nuw %struct._object, ptr %3, i32 0, i32 0
  %5 = getelementptr inbounds nuw %struct.anon.42, ptr %4, i32 0, i32 0
  %6 = load i32, ptr %5, align 8, !tbaa !219
  %7 = icmp slt i32 %6, 0
  %8 = zext i1 %7 to i32
  ret i32 %8
}

; Function Attrs: inlinehint nounwind uwtable
define internal void @PyTuple_SET_ITEM(ptr noundef %0, i64 noundef %1, ptr noundef %2) #4 {
  %4 = alloca ptr, align 8
  %5 = alloca i64, align 8
  %6 = alloca ptr, align 8
  %7 = alloca ptr, align 8
  store ptr %0, ptr %4, align 8, !tbaa !191
  store i64 %1, ptr %5, align 8, !tbaa !203
  store ptr %2, ptr %6, align 8, !tbaa !191
  call void @llvm.lifetime.start.p0(i64 8, ptr %7) #11
  %8 = load ptr, ptr %4, align 8, !tbaa !191
  store ptr %8, ptr %7, align 8, !tbaa !190
  %9 = load ptr, ptr %6, align 8, !tbaa !191
  %10 = load ptr, ptr %7, align 8, !tbaa !190
  %11 = getelementptr inbounds nuw %struct.PyTupleObject, ptr %10, i32 0, i32 1
  %12 = load i64, ptr %5, align 8, !tbaa !203
  %13 = getelementptr [1 x ptr], ptr %11, i64 0, i64 %12
  store ptr %9, ptr %13, align 8, !tbaa !191
  call void @llvm.lifetime.end.p0(i64 8, ptr %7) #11
  ret void
}

; Function Attrs: alwaysinline nounwind uwtable
define internal void @Py_DECREF(ptr noundef %0) #5 {
  %2 = alloca ptr, align 8
  store ptr %0, ptr %2, align 8, !tbaa !191
  %3 = load ptr, ptr %2, align 8, !tbaa !191
  %4 = call i32 @_Py_IsImmortal(ptr noundef %3)
  %5 = icmp ne i32 %4, 0
  br i1 %5, label %6, label %7

6:                                                ; preds = %1
  br label %16

7:                                                ; preds = %1
  %8 = load ptr, ptr %2, align 8, !tbaa !191
  %9 = getelementptr inbounds nuw %struct._object, ptr %8, i32 0, i32 0
  %10 = getelementptr inbounds nuw %struct.anon.42, ptr %9, i32 0, i32 0
  %11 = load i32, ptr %10, align 8, !tbaa !219
  %12 = add i32 %11, -1
  store i32 %12, ptr %10, align 8, !tbaa !219
  %13 = icmp eq i32 %12, 0
  br i1 %13, label %14, label %16

14:                                               ; preds = %7
  %15 = load ptr, ptr %2, align 8, !tbaa !191
  call void @_Py_Dealloc(ptr noundef %15)
  br label %16

16:                                               ; preds = %6, %14, %7
  ret void
}

; Function Attrs: nounwind uwtable
define internal ptr @trace_to_pyobject(i32 noundef %0, ptr noundef %1, ptr noundef %2) #0 {
  %4 = alloca ptr, align 8
  %5 = alloca i32, align 4
  %6 = alloca ptr, align 8
  %7 = alloca ptr, align 8
  %8 = alloca ptr, align 8
  %9 = alloca i32, align 4
  %10 = alloca ptr, align 8
  store i32 %0, ptr %5, align 4, !tbaa !196
  store ptr %1, ptr %6, align 8, !tbaa !190
  store ptr %2, ptr %7, align 8, !tbaa !223
  call void @llvm.lifetime.start.p0(i64 8, ptr %8) #11
  %11 = call ptr @PyTuple_New(i64 noundef 4)
  store ptr %11, ptr %8, align 8, !tbaa !191
  %12 = load ptr, ptr %8, align 8, !tbaa !191
  %13 = icmp eq ptr %12, null
  br i1 %13, label %14, label %15

14:                                               ; preds = %3
  store ptr null, ptr %4, align 8
  store i32 1, ptr %9, align 4
  br label %65

15:                                               ; preds = %3
  call void @llvm.lifetime.start.p0(i64 8, ptr %10) #11
  %16 = load i32, ptr %5, align 4, !tbaa !196
  %17 = zext i32 %16 to i64
  %18 = call ptr @PyLong_FromSize_t(i64 noundef %17)
  store ptr %18, ptr %10, align 8, !tbaa !191
  %19 = load ptr, ptr %10, align 8, !tbaa !191
  %20 = icmp eq ptr %19, null
  br i1 %20, label %21, label %23

21:                                               ; preds = %15
  %22 = load ptr, ptr %8, align 8, !tbaa !191
  call void @Py_DECREF(ptr noundef %22)
  store ptr null, ptr %4, align 8
  store i32 1, ptr %9, align 4
  br label %64

23:                                               ; preds = %15
  %24 = load ptr, ptr %8, align 8, !tbaa !191
  %25 = load ptr, ptr %10, align 8, !tbaa !191
  call void @PyTuple_SET_ITEM(ptr noundef %24, i64 noundef 0, ptr noundef %25)
  %26 = load ptr, ptr %6, align 8, !tbaa !190
  %27 = getelementptr inbounds nuw %struct.trace_t, ptr %26, i32 0, i32 0
  %28 = load i64, ptr %27, align 8, !tbaa !224
  %29 = call ptr @PyLong_FromSize_t(i64 noundef %28)
  store ptr %29, ptr %10, align 8, !tbaa !191
  %30 = load ptr, ptr %10, align 8, !tbaa !191
  %31 = icmp eq ptr %30, null
  br i1 %31, label %32, label %34

32:                                               ; preds = %23
  %33 = load ptr, ptr %8, align 8, !tbaa !191
  call void @Py_DECREF(ptr noundef %33)
  store ptr null, ptr %4, align 8
  store i32 1, ptr %9, align 4
  br label %64

34:                                               ; preds = %23
  %35 = load ptr, ptr %8, align 8, !tbaa !191
  %36 = load ptr, ptr %10, align 8, !tbaa !191
  call void @PyTuple_SET_ITEM(ptr noundef %35, i64 noundef 1, ptr noundef %36)
  %37 = load ptr, ptr %6, align 8, !tbaa !190
  %38 = getelementptr inbounds nuw %struct.trace_t, ptr %37, i32 0, i32 1
  %39 = load ptr, ptr %38, align 8, !tbaa !215
  %40 = load ptr, ptr %7, align 8, !tbaa !223
  %41 = call ptr @traceback_to_pyobject(ptr noundef %39, ptr noundef %40)
  store ptr %41, ptr %10, align 8, !tbaa !191
  %42 = load ptr, ptr %10, align 8, !tbaa !191
  %43 = icmp eq ptr %42, null
  br i1 %43, label %44, label %46

44:                                               ; preds = %34
  %45 = load ptr, ptr %8, align 8, !tbaa !191
  call void @Py_DECREF(ptr noundef %45)
  store ptr null, ptr %4, align 8
  store i32 1, ptr %9, align 4
  br label %64

46:                                               ; preds = %34
  %47 = load ptr, ptr %8, align 8, !tbaa !191
  %48 = load ptr, ptr %10, align 8, !tbaa !191
  call void @PyTuple_SET_ITEM(ptr noundef %47, i64 noundef 2, ptr noundef %48)
  %49 = load ptr, ptr %6, align 8, !tbaa !190
  %50 = getelementptr inbounds nuw %struct.trace_t, ptr %49, i32 0, i32 1
  %51 = load ptr, ptr %50, align 8, !tbaa !215
  %52 = getelementptr inbounds nuw %struct.tracemalloc_traceback, ptr %51, i32 0, i32 2
  %53 = load i16, ptr %52, align 2, !tbaa !195
  %54 = zext i16 %53 to i64
  %55 = call ptr @PyLong_FromUnsignedLong(i64 noundef %54)
  store ptr %55, ptr %10, align 8, !tbaa !191
  %56 = load ptr, ptr %10, align 8, !tbaa !191
  %57 = icmp eq ptr %56, null
  br i1 %57, label %58, label %60

58:                                               ; preds = %46
  %59 = load ptr, ptr %8, align 8, !tbaa !191
  call void @Py_DECREF(ptr noundef %59)
  store ptr null, ptr %4, align 8
  store i32 1, ptr %9, align 4
  br label %64

60:                                               ; preds = %46
  %61 = load ptr, ptr %8, align 8, !tbaa !191
  %62 = load ptr, ptr %10, align 8, !tbaa !191
  call void @PyTuple_SET_ITEM(ptr noundef %61, i64 noundef 3, ptr noundef %62)
  %63 = load ptr, ptr %8, align 8, !tbaa !191
  store ptr %63, ptr %4, align 8
  store i32 1, ptr %9, align 4
  br label %64

64:                                               ; preds = %60, %58, %44, %32, %21
  call void @llvm.lifetime.end.p0(i64 8, ptr %10) #11
  br label %65

65:                                               ; preds = %64, %14
  call void @llvm.lifetime.end.p0(i64 8, ptr %8) #11
  %66 = load ptr, ptr %4, align 8
  ret ptr %66
}

; Function Attrs: nounwind uwtable
define internal i32 @tracemalloc_get_traces_fill(ptr noundef %0, ptr noundef %1, ptr noundef %2, ptr noundef %3) #0 {
  %5 = alloca i32, align 4
  %6 = alloca ptr, align 8
  %7 = alloca ptr, align 8
  %8 = alloca ptr, align 8
  %9 = alloca ptr, align 8
  %10 = alloca ptr, align 8
  %11 = alloca ptr, align 8
  %12 = alloca ptr, align 8
  %13 = alloca i32, align 4
  %14 = alloca i32, align 4
  store ptr %0, ptr %6, align 8, !tbaa !223
  store ptr %1, ptr %7, align 8, !tbaa !190
  store ptr %2, ptr %8, align 8, !tbaa !190
  store ptr %3, ptr %9, align 8, !tbaa !190
  call void @llvm.lifetime.start.p0(i64 8, ptr %10) #11
  %15 = load ptr, ptr %9, align 8, !tbaa !190
  store ptr %15, ptr %10, align 8, !tbaa !190
  call void @llvm.lifetime.start.p0(i64 8, ptr %11) #11
  %16 = load ptr, ptr %8, align 8, !tbaa !190
  store ptr %16, ptr %11, align 8, !tbaa !190
  call void @llvm.lifetime.start.p0(i64 8, ptr %12) #11
  %17 = load ptr, ptr %10, align 8, !tbaa !190
  %18 = getelementptr inbounds nuw %struct.get_traces_t, ptr %17, i32 0, i32 4
  %19 = load i32, ptr %18, align 8, !tbaa !226
  %20 = load ptr, ptr %11, align 8, !tbaa !190
  %21 = load ptr, ptr %10, align 8, !tbaa !190
  %22 = getelementptr inbounds nuw %struct.get_traces_t, ptr %21, i32 0, i32 2
  %23 = load ptr, ptr %22, align 8, !tbaa !230
  %24 = call ptr @trace_to_pyobject(i32 noundef %19, ptr noundef %20, ptr noundef %23)
  store ptr %24, ptr %12, align 8, !tbaa !191
  %25 = load ptr, ptr %12, align 8, !tbaa !191
  %26 = icmp eq ptr %25, null
  br i1 %26, label %27, label %28

27:                                               ; preds = %4
  store i32 1, ptr %5, align 4
  store i32 1, ptr %13, align 4
  br label %40

28:                                               ; preds = %4
  call void @llvm.lifetime.start.p0(i64 4, ptr %14) #11
  %29 = load ptr, ptr %10, align 8, !tbaa !190
  %30 = getelementptr inbounds nuw %struct.get_traces_t, ptr %29, i32 0, i32 3
  %31 = load ptr, ptr %30, align 8, !tbaa !231
  %32 = load ptr, ptr %12, align 8, !tbaa !191
  %33 = call i32 @PyList_Append(ptr noundef %31, ptr noundef %32)
  store i32 %33, ptr %14, align 4, !tbaa !196
  %34 = load ptr, ptr %12, align 8, !tbaa !191
  call void @Py_DECREF(ptr noundef %34)
  %35 = load i32, ptr %14, align 4, !tbaa !196
  %36 = icmp slt i32 %35, 0
  br i1 %36, label %37, label %38

37:                                               ; preds = %28
  store i32 1, ptr %5, align 4
  store i32 1, ptr %13, align 4
  br label %39

38:                                               ; preds = %28
  store i32 0, ptr %5, align 4
  store i32 1, ptr %13, align 4
  br label %39

39:                                               ; preds = %38, %37
  call void @llvm.lifetime.end.p0(i64 4, ptr %14) #11
  br label %40

40:                                               ; preds = %39, %27
  call void @llvm.lifetime.end.p0(i64 8, ptr %12) #11
  call void @llvm.lifetime.end.p0(i64 8, ptr %11) #11
  call void @llvm.lifetime.end.p0(i64 8, ptr %10) #11
  %41 = load i32, ptr %5, align 4
  ret i32 %41
}