; Function Attrs: nounwind uwtable
define internal range(i32 0, 2) i32 @tracemalloc_get_traces_fill(ptr readnone captures(none) %0, ptr readnone captures(none) %1, ptr noundef readonly captures(none) %2, ptr noundef readonly captures(none) %3) #0 {
  %5 = getelementptr inbounds nuw i8, ptr %3, i64 32
  %6 = load i32, ptr %5, align 8, !tbaa !221
  %7 = getelementptr inbounds nuw i8, ptr %3, i64 16
  %8 = load ptr, ptr %7, align 8, !tbaa !224
  %9 = tail call ptr @PyTuple_New(i64 noundef 4) #14
  %10 = icmp eq ptr %9, null
  br i1 %10, label %trace_to_pyobject.exit.thread, label %11

11:                                               ; preds = %4
  %12 = zext i32 %6 to i64
  %13 = tail call ptr @PyLong_FromSize_t(i64 noundef %12) #14
  %14 = icmp eq ptr %13, null
  br i1 %14, label %15, label %21

15:                                               ; preds = %11
  %16 = load i32, ptr %9, align 8, !tbaa !191
  %.not.i32.i = icmp sgt i32 %16, -1
  br i1 %.not.i32.i, label %17, label %trace_to_pyobject.exit.thread

17:                                               ; preds = %15
  %18 = add nsw i32 %16, -1
  store i32 %18, ptr %9, align 8, !tbaa !191
  %19 = icmp eq i32 %18, 0
  br i1 %19, label %20, label %trace_to_pyobject.exit.thread

20:                                               ; preds = %17
  tail call void @_Py_Dealloc(ptr noundef nonnull %9) #14
  br label %trace_to_pyobject.exit.thread

21:                                               ; preds = %11
  %22 = getelementptr inbounds nuw i8, ptr %9, i64 24
  store ptr %13, ptr %22, align 8, !tbaa !198
  %23 = load i64, ptr %2, align 8, !tbaa !208
  %24 = tail call ptr @PyLong_FromSize_t(i64 noundef %23) #14
  %25 = icmp eq ptr %24, null
  br i1 %25, label %26, label %32

26:                                               ; preds = %21
  %27 = load i32, ptr %9, align 8, !tbaa !191
  %.not.i30.i = icmp sgt i32 %27, -1
  br i1 %.not.i30.i, label %28, label %trace_to_pyobject.exit.thread

28:                                               ; preds = %26
  %29 = add nsw i32 %27, -1
  store i32 %29, ptr %9, align 8, !tbaa !191
  %30 = icmp eq i32 %29, 0
  br i1 %30, label %31, label %trace_to_pyobject.exit.thread

31:                                               ; preds = %28
  tail call void @_Py_Dealloc(ptr noundef nonnull %9) #14
  br label %trace_to_pyobject.exit.thread

32:                                               ; preds = %21
  %33 = getelementptr i8, ptr %9, i64 32
  store ptr %24, ptr %33, align 8, !tbaa !198
  %34 = getelementptr inbounds nuw i8, ptr %2, i64 8
  %35 = load ptr, ptr %34, align 8, !tbaa !217
  %36 = tail call fastcc ptr @traceback_to_pyobject(ptr noundef %35, ptr noundef %8)
  %37 = icmp eq ptr %36, null
  br i1 %37, label %38, label %44

38:                                               ; preds = %32
  %39 = load i32, ptr %9, align 8, !tbaa !191
  %.not.i28.i = icmp sgt i32 %39, -1
  br i1 %.not.i28.i, label %40, label %trace_to_pyobject.exit.thread

40:                                               ; preds = %38
  %41 = add nsw i32 %39, -1
  store i32 %41, ptr %9, align 8, !tbaa !191
  %42 = icmp eq i32 %41, 0
  br i1 %42, label %43, label %trace_to_pyobject.exit.thread

43:                                               ; preds = %40
  tail call void @_Py_Dealloc(ptr noundef nonnull %9) #14
  br label %trace_to_pyobject.exit.thread

44:                                               ; preds = %32
  %45 = getelementptr i8, ptr %9, i64 40
  store ptr %36, ptr %45, align 8, !tbaa !198
  %46 = load ptr, ptr %34, align 8, !tbaa !217
  %47 = getelementptr inbounds nuw i8, ptr %46, i64 10
  %48 = load i16, ptr %47, align 2, !tbaa !188
  %49 = zext i16 %48 to i64
  %50 = tail call ptr @PyLong_FromUnsignedLong(i64 noundef %49) #14
  %51 = icmp eq ptr %50, null
  br i1 %51, label %52, label %58

52:                                               ; preds = %44
  %53 = load i32, ptr %9, align 8, !tbaa !191
  %.not.i.i = icmp sgt i32 %53, -1
  br i1 %.not.i.i, label %54, label %trace_to_pyobject.exit.thread

54:                                               ; preds = %52
  %55 = add nsw i32 %53, -1
  store i32 %55, ptr %9, align 8, !tbaa !191
  %56 = icmp eq i32 %55, 0
  br i1 %56, label %57, label %trace_to_pyobject.exit.thread

57:                                               ; preds = %54
  tail call void @_Py_Dealloc(ptr noundef nonnull %9) #14
  br label %trace_to_pyobject.exit.thread

58:                                               ; preds = %44
  %59 = getelementptr i8, ptr %9, i64 48
  store ptr %50, ptr %59, align 8, !tbaa !198
  %60 = getelementptr inbounds nuw i8, ptr %3, i64 24
  %61 = load ptr, ptr %60, align 8, !tbaa !223
  %62 = tail call i32 @PyList_Append(ptr noundef %61, ptr noundef nonnull %9) #14
  %63 = load i32, ptr %9, align 8, !tbaa !191
  %.not.i = icmp sgt i32 %63, -1
  br i1 %.not.i, label %64, label %Py_DECREF.exit

64:                                               ; preds = %58
  %65 = add nsw i32 %63, -1
  store i32 %65, ptr %9, align 8, !tbaa !191
  %66 = icmp eq i32 %65, 0
  br i1 %66, label %67, label %Py_DECREF.exit

67:                                               ; preds = %64
  tail call void @_Py_Dealloc(ptr noundef nonnull %9) #14
  br label %Py_DECREF.exit

Py_DECREF.exit:                                   ; preds = %58, %64, %67
  %.lobit = lshr i32 %62, 31
  br label %trace_to_pyobject.exit.thread

trace_to_pyobject.exit.thread:                    ; preds = %57, %54, %52, %43, %40, %38, %31, %28, %26, %20, %17, %15, %4, %Py_DECREF.exit
  %.0 = phi i32 [ %.lobit, %Py_DECREF.exit ], [ 1, %4 ], [ 1, %15 ], [ 1, %17 ], [ 1, %20 ], [ 1, %26 ], [ 1, %28 ], [ 1, %31 ], [ 1, %38 ], [ 1, %40 ], [ 1, %43 ], [ 1, %52 ], [ 1, %54 ], [ 1, %57 ]
  ret i32 %.0
}